; ModuleID = '19/569.c'
source_filename = "19/569.c"
target datalayout = "e-m:e-p270:32:32-p271:32:32-p272:64:64-i64:64-f80:128-n8:16:32:64-S128"
target triple = "x86_64-pc-linux-gnu"

@.str = private unnamed_addr constant [3 x i8] c"%c\00", align 1
@.str.1 = private unnamed_addr constant [3 x i8] c"%s\00", align 1

; Function Attrs: noinline nounwind uwtable
define dso_local i32 @iflet(i8 signext %0) #0 {
  %2 = alloca i8, align 1
  %3 = alloca i32, align 4
  store i8 %0, i8* %2, align 1
  store i32 0, i32* %3, align 4
  %4 = load i8, i8* %2, align 1
  %5 = sext i8 %4 to i32
  %6 = icmp sge i32 %5, 97
  br i1 %6, label %7, label %11

7:                                                ; preds = %1
  %8 = load i8, i8* %2, align 1
  %9 = sext i8 %8 to i32
  %10 = icmp sle i32 %9, 122
  br i1 %10, label %19, label %11

11:                                               ; preds = %7, %1
  %12 = load i8, i8* %2, align 1
  %13 = sext i8 %12 to i32
  %14 = icmp sge i32 %13, 65
  br i1 %14, label %15, label %20

15:                                               ; preds = %11
  %16 = load i8, i8* %2, align 1
  %17 = sext i8 %16 to i32
  %18 = icmp sle i32 %17, 90
  br i1 %18, label %19, label %20

19:                                               ; preds = %15, %7
  store i32 1, i32* %3, align 4
  br label %20

20:                                               ; preds = %19, %15, %11
  %21 = load i32, i32* %3, align 4
  ret i32 %21
}

; Function Attrs: noinline nounwind uwtable
define dso_local void @main() #0 {
  %1 = alloca [100 x i8], align 16
  %2 = alloca [100 x i8], align 16
  %3 = alloca [100 x i8], align 16
  %4 = alloca i8*, align 8
  %5 = alloca i8*, align 8
  %6 = alloca i8*, align 8
  %7 = alloca [20 x i8], align 16
  %8 = alloca i32, align 4
  %9 = getelementptr inbounds [100 x i8], [100 x i8]* %1, i64 0, i64 0
  store i8* %9, i8** %4, align 8
  %10 = getelementptr inbounds [100 x i8], [100 x i8]* %2, i64 0, i64 0
  store i8* %10, i8** %5, align 8
  %11 = getelementptr inbounds [100 x i8], [100 x i8]* %3, i64 0, i64 0
  store i8* %11, i8** %6, align 8
  %12 = getelementptr inbounds [100 x i8], [100 x i8]* %1, i64 0, i64 0
  %13 = call i32 (i8*, ...) bitcast (i32 (...)* @gets to i32 (i8*, ...)*)(i8* %12)
  %14 = getelementptr inbounds [100 x i8], [100 x i8]* %2, i64 0, i64 0
  %15 = call i32 (i8*, ...) bitcast (i32 (...)* @gets to i32 (i8*, ...)*)(i8* %14)
  %16 = getelementptr inbounds [100 x i8], [100 x i8]* %3, i64 0, i64 0
  %17 = call i32 (i8*, ...) bitcast (i32 (...)* @gets to i32 (i8*, ...)*)(i8* %16)
  br label %18

18:                                               ; preds = %100, %0
  %19 = load i8*, i8** %4, align 8
  %20 = load i8, i8* %19, align 1
  %21 = sext i8 %20 to i32
  %22 = icmp ne i32 %21, 0
  br i1 %22, label %23, label %101

23:                                               ; preds = %18
  %24 = load i8*, i8** %4, align 8
  %25 = load i8, i8* %24, align 1
  %26 = sext i8 %25 to i32
  %27 = icmp eq i32 %26, 32
  br i1 %27, label %28, label %35

28:                                               ; preds = %23
  %29 = load i8*, i8** %4, align 8
  %30 = load i8, i8* %29, align 1
  %31 = sext i8 %30 to i32
  %32 = call i32 (i8*, ...) @printf(i8* getelementptr inbounds ([3 x i8], [3 x i8]* @.str, i64 0, i64 0), i32 %31)
  %33 = load i8*, i8** %4, align 8
  %34 = getelementptr inbounds i8, i8* %33, i32 1
  store i8* %34, i8** %4, align 8
  br label %100

35:                                               ; preds = %23
  %36 = load i8*, i8** %4, align 8
  %37 = load i8, i8* %36, align 1
  %38 = call i32 @iflet(i8 signext %37)
  %39 = icmp eq i32 %38, 1
  br i1 %39, label %40, label %46

40:                                               ; preds = %35
  %41 = load i8*, i8** %4, align 8
  %42 = getelementptr inbounds i8, i8* %41, i64 -1
  %43 = load i8, i8* %42, align 1
  %44 = sext i8 %43 to i32
  %45 = icmp eq i32 %44, 32
  br i1 %45, label %49, label %46

46:                                               ; preds = %40, %35
  %47 = getelementptr inbounds [100 x i8], [100 x i8]* %1, i64 0, i64 0
  store i8* %47, i8** %4, align 8
  %48 = icmp ne i8* %47, null
  br i1 %48, label %49, label %99

49:                                               ; preds = %46, %40
  store i32 0, i32* %8, align 4
  br label %50

50:                                               ; preds = %77, %49
  %51 = load i8*, i8** %4, align 8
  %52 = load i32, i32* %8, align 4
  %53 = sext i32 %52 to i64
  %54 = getelementptr inbounds i8, i8* %51, i64 %53
  %55 = load i8, i8* %54, align 1
  %56 = sext i8 %55 to i32
  %57 = icmp ne i32 %56, 32
  br i1 %57, label %58, label %66

58:                                               ; preds = %50
  %59 = load i8*, i8** %4, align 8
  %60 = load i32, i32* %8, align 4
  %61 = sext i32 %60 to i64
  %62 = getelementptr inbounds i8, i8* %59, i64 %61
  %63 = load i8, i8* %62, align 1
  %64 = sext i8 %63 to i32
  %65 = icmp ne i32 %64, 0
  br label %66

66:                                               ; preds = %58, %50
  %67 = phi i1 [ false, %50 ], [ %65, %58 ]
  br i1 %67, label %68, label %80

68:                                               ; preds = %66
  %69 = load i8*, i8** %4, align 8
  %70 = load i32, i32* %8, align 4
  %71 = sext i32 %70 to i64
  %72 = getelementptr inbounds i8, i8* %69, i64 %71
  %73 = load i8, i8* %72, align 1
  %74 = load i32, i32* %8, align 4
  %75 = sext i32 %74 to i64
  %76 = getelementptr inbounds [20 x i8], [20 x i8]* %7, i64 0, i64 %75
  store i8 %73, i8* %76, align 1
  br label %77

77:                                               ; preds = %68
  %78 = load i32, i32* %8, align 4
  %79 = add nsw i32 %78, 1
  store i32 %79, i32* %8, align 4
  br label %50

80:                                               ; preds = %66
  %81 = load i32, i32* %8, align 4
  %82 = sext i32 %81 to i64
  %83 = getelementptr inbounds [20 x i8], [20 x i8]* %7, i64 0, i64 %82
  store i8 0, i8* %83, align 1
  %84 = getelementptr inbounds [20 x i8], [20 x i8]* %7, i64 0, i64 0
  %85 = getelementptr inbounds [100 x i8], [100 x i8]* %2, i64 0, i64 0
  %86 = call i32 @strcmp(i8* %84, i8* %85) #3
  %87 = icmp eq i32 %86, 0
  br i1 %87, label %88, label %91

88:                                               ; preds = %80
  %89 = getelementptr inbounds [100 x i8], [100 x i8]* %3, i64 0, i64 0
  %90 = call i32 (i8*, ...) @printf(i8* getelementptr inbounds ([3 x i8], [3 x i8]* @.str.1, i64 0, i64 0), i8* %89)
  br label %94

91:                                               ; preds = %80
  %92 = getelementptr inbounds [20 x i8], [20 x i8]* %7, i64 0, i64 0
  %93 = call i32 (i8*, ...) @printf(i8* getelementptr inbounds ([3 x i8], [3 x i8]* @.str.1, i64 0, i64 0), i8* %92)
  br label %94

94:                                               ; preds = %91, %88
  %95 = load i8*, i8** %4, align 8
  %96 = load i32, i32* %8, align 4
  %97 = sext i32 %96 to i64
  %98 = getelementptr inbounds i8, i8* %95, i64 %97
  store i8* %98, i8** %4, align 8
  br label %99

99:                                               ; preds = %94, %46
  br label %100

100:                                              ; preds = %99, %28
  br label %18

101:                                              ; preds = %18
  ret void
}

declare dso_local i32 @gets(...) #1

declare dso_local i32 @printf(i8*, ...) #1

; Function Attrs: nounwind readonly
declare dso_local i32 @strcmp(i8*, i8*) #2


!llvm.module.flags = !{!0}
!llvm.ident = !{!1}

!0 = !{i32 1, !"wchar_size", i32 4}
!1 = !{!"clang version 10.0.0-4ubuntu1 "}
