; ModuleID = 'source-C-CXX/18/569.c'
source_filename = "source-C-CXX/18/569.c"
target datalayout = "e-m:e-p270:32:32-p271:32:32-p272:64:64-i64:64-f80:128-n8:16:32:64-S128"
target triple = "x86_64-pc-linux-gnu"

@.str.1 = private unnamed_addr constant [3 x i8] c"%s\00", align 1

; Function Attrs: mustprogress nofree norecurse nosync nounwind readnone sspstrong uwtable willreturn
define dso_local i32 @iflet(i8 signext %0) local_unnamed_addr #0 {
  %2 = and i8 %0, -33
  %3 = add i8 %2, -65
  %4 = icmp ult i8 %3, 26
  %5 = zext i1 %4 to i32
  ret i32 %5
}

; Function Attrs: argmemonly mustprogress nofree nosync nounwind willreturn
declare void @llvm.lifetime.start.p0i8(i64 immarg, i8* nocapture) #1

; Function Attrs: argmemonly mustprogress nofree nosync nounwind willreturn
declare void @llvm.lifetime.end.p0i8(i64 immarg, i8* nocapture) #1

; Function Attrs: nounwind sspstrong uwtable
define dso_local void @main() local_unnamed_addr #2 {
  %1 = alloca [100 x i8], align 16
  %2 = alloca [100 x i8], align 16
  %3 = alloca [100 x i8], align 16
  %4 = alloca [20 x i8], align 16
  %5 = getelementptr inbounds [100 x i8], [100 x i8]* %1, i64 0, i64 0
  call void @llvm.lifetime.start.p0i8(i64 100, i8* nonnull %5) #7
  %6 = getelementptr inbounds [100 x i8], [100 x i8]* %2, i64 0, i64 0
  call void @llvm.lifetime.start.p0i8(i64 100, i8* nonnull %6) #7
  %7 = getelementptr inbounds [100 x i8], [100 x i8]* %3, i64 0, i64 0
  call void @llvm.lifetime.start.p0i8(i64 100, i8* nonnull %7) #7
  %8 = getelementptr inbounds [20 x i8], [20 x i8]* %4, i64 0, i64 0
  call void @llvm.lifetime.start.p0i8(i64 20, i8* nonnull %8) #7
  %9 = call i32 (i8*, ...) bitcast (i32 (...)* @gets to i32 (i8*, ...)*)(i8* nonnull %5) #7
  %10 = call i32 (i8*, ...) bitcast (i32 (...)* @gets to i32 (i8*, ...)*)(i8* nonnull %6) #7
  %11 = call i32 (i8*, ...) bitcast (i32 (...)* @gets to i32 (i8*, ...)*)(i8* nonnull %7) #7
  br label %12

12:                                               ; preds = %44, %0
  %13 = phi i8* [ %5, %0 ], [ %45, %44 ]
  %14 = load i8, i8* %13, align 1, !tbaa !5
  switch i8 %14, label %18 [
    i8 0, label %48
    i8 32, label %15
  ]

15:                                               ; preds = %12
  %16 = call i32 @putchar(i32 32)
  %17 = getelementptr inbounds i8, i8* %13, i64 1
  br label %44

18:                                               ; preds = %12
  %19 = and i8 %14, -33
  %20 = add i8 %19, -65
  %21 = icmp ult i8 %20, 26
  br i1 %21, label %22, label %26

22:                                               ; preds = %18
  %23 = getelementptr inbounds i8, i8* %13, i64 -1
  %24 = load i8, i8* %23, align 1, !tbaa !5
  %25 = icmp eq i8 %24, 32
  br i1 %25, label %27, label %26

26:                                               ; preds = %22, %18
  br label %27

27:                                               ; preds = %26, %22
  %28 = phi i8* [ %13, %22 ], [ %5, %26 ]
  br label %29

29:                                               ; preds = %33, %27
  %30 = phi i64 [ %35, %33 ], [ 0, %27 ]
  %31 = getelementptr inbounds i8, i8* %28, i64 %30
  %32 = load i8, i8* %31, align 1, !tbaa !5
  switch i8 %32, label %33 [
    i8 32, label %36
    i8 0, label %36
  ]

33:                                               ; preds = %29
  %34 = getelementptr inbounds [20 x i8], [20 x i8]* %4, i64 0, i64 %30
  store i8 %32, i8* %34, align 1, !tbaa !5
  %35 = add nuw i64 %30, 1
  br label %29, !llvm.loop !8

36:                                               ; preds = %29, %29
  %37 = and i64 %30, 4294967295
  %38 = getelementptr inbounds i8, i8* %28, i64 %37
  %39 = getelementptr inbounds [20 x i8], [20 x i8]* %4, i64 0, i64 %37
  store i8 0, i8* %39, align 1, !tbaa !5
  %40 = call i32 @strcmp(i8* noundef nonnull %8, i8* noundef nonnull %6) #8
  %41 = icmp eq i32 %40, 0
  br i1 %41, label %42, label %46

42:                                               ; preds = %36
  %43 = call i32 (i8*, ...) @printf(i8* nonnull dereferenceable(1) getelementptr inbounds ([3 x i8], [3 x i8]* @.str.1, i64 0, i64 0), i8* nonnull %7)
  br label %44

44:                                               ; preds = %42, %46, %15
  %45 = phi i8* [ %17, %15 ], [ %38, %46 ], [ %38, %42 ]
  br label %12, !llvm.loop !10

46:                                               ; preds = %36
  %47 = call i32 (i8*, ...) @printf(i8* nonnull dereferenceable(1) getelementptr inbounds ([3 x i8], [3 x i8]* @.str.1, i64 0, i64 0), i8* nonnull %8)
  br label %44

48:                                               ; preds = %12
  call void @llvm.lifetime.end.p0i8(i64 20, i8* nonnull %8) #7
  call void @llvm.lifetime.end.p0i8(i64 100, i8* nonnull %7) #7
  call void @llvm.lifetime.end.p0i8(i64 100, i8* nonnull %6) #7
  call void @llvm.lifetime.end.p0i8(i64 100, i8* nonnull %5) #7
  ret void
}

declare i32 @gets(...) local_unnamed_addr #3

; Function Attrs: nofree nounwind
declare noundef i32 @printf(i8* nocapture noundef readonly, ...) local_unnamed_addr #4

; Function Attrs: argmemonly mustprogress nofree nounwind readonly willreturn
declare i32 @strcmp(i8* nocapture, i8* nocapture) local_unnamed_addr #5

; Function Attrs: nofree nounwind
declare noundef i32 @putchar(i32 noundef) local_unnamed_addr #6


!llvm.module.flags = !{!0, !1, !2, !3}
!llvm.ident = !{!4}

!0 = !{i32 1, !"wchar_size", i32 4}
!1 = !{i32 7, !"PIC Level", i32 2}
!2 = !{i32 7, !"PIE Level", i32 2}
!3 = !{i32 7, !"uwtable", i32 1}
!4 = !{!"clang version 13.0.0"}
!5 = !{!6, !6, i64 0}
!6 = !{!"omnipotent char", !7, i64 0}
!7 = !{!"Simple C/C++ TBAA"}
!8 = distinct !{!8, !9}
!9 = !{!"llvm.loop.mustprogress"}
!10 = distinct !{!10, !9}
